target datalayout = "e-m:e-p270:32:32-p271:32:32-p272:64:64-i64:64-i128:128-f80:128-n8:16:32:64-S128"
target triple = "x86_64-pc-linux-gnu"

@.str.1 = private unnamed_addr constant [12 x i8] c"xlogfuncs.c\00", align 1
@.str.6 = private unnamed_addr constant [24 x i8] c"recovery is in progress\00", align 1
@.str.8 = private unnamed_addr constant [39 x i8] c"%s cannot be executed during recovery.\00", align 1
@.str.9 = private unnamed_addr constant [26 x i8] c"pg_log_standby_snapshot()\00", align 1
@__func__.pg_log_standby_snapshot = private unnamed_addr constant [24 x i8] c"pg_log_standby_snapshot\00", align 1
@wal_level = external global i32, align 4
@.str.10 = private unnamed_addr constant [71 x i8] c"pg_log_standby_snapshot() can only be used if \22wal_level\22 >= \22replica\22\00", align 1

; Function Attrs: inlinehint nounwind uwtable
define internal i64 @Int64GetDatum(i64 noundef %0) #3 {
  %2 = alloca i64, align 8
  store i64 %0, ptr %2, align 8
  %3 = load i64, ptr %2, align 8
  ret i64 %3
}

; Function Attrs: inlinehint nounwind uwtable
define internal i64 @LSNGetDatum(i64 noundef %0) #3 {
  %2 = alloca i64, align 8
  store i64 %0, ptr %2, align 8
  %3 = load i64, ptr %2, align 8
  %4 = call i64 @Int64GetDatum(i64 noundef %3)
  ret i64 %4
}

; Function Attrs: nounwind uwtable
define dso_local i64 @pg_log_standby_snapshot(ptr noundef %0) #0 {
  %2 = alloca ptr, align 8
  %3 = alloca i64, align 8
  store ptr %0, ptr %2, align 8
  call void @llvm.lifetime.start.p0(i64 8, ptr %3) #9
  %4 = call zeroext i1 @RecoveryInProgress()
  br i1 %4, label %5, label %18

5:                                                ; preds = %1
  br label %6

6:                                                ; preds = %5
  br i1 true, label %7, label %9

7:                                                ; preds = %6
  %8 = call zeroext i1 @errstart_cold(i32 noundef 21, ptr noundef null) #10
  br i1 %8, label %11, label %15

9:                                                ; preds = %6
  %10 = call zeroext i1 @errstart(i32 noundef 21, ptr noundef null)
  br i1 %10, label %11, label %15

11:                                               ; preds = %9, %7
  %12 = call i32 @errcode(i32 noundef 325)
  %13 = call i32 (ptr, ...) @errmsg(ptr noundef @.str.6)
  %14 = call i32 (ptr, ...) @errhint(ptr noundef @.str.8, ptr noundef @.str.9)
  call void @errfinish(ptr noundef @.str.1, i32 noundef 211, ptr noundef @__func__.pg_log_standby_snapshot)
  br label %15

15:                                               ; preds = %11, %9, %7
  unreachable

16:                                               ; No predecessors!
  br label %17

17:                                               ; preds = %16
  br label %18

18:                                               ; preds = %17, %1
  %19 = load i32, ptr @wal_level, align 4
  %20 = icmp sge i32 %19, 1
  br i1 %20, label %33, label %21

21:                                               ; preds = %18
  br label %22

22:                                               ; preds = %21
  br i1 true, label %23, label %25

23:                                               ; preds = %22
  %24 = call zeroext i1 @errstart_cold(i32 noundef 21, ptr noundef null) #10
  br i1 %24, label %27, label %30

25:                                               ; preds = %22
  %26 = call zeroext i1 @errstart(i32 noundef 21, ptr noundef null)
  br i1 %26, label %27, label %30

27:                                               ; preds = %25, %23
  %28 = call i32 @errcode(i32 noundef 325)
  %29 = call i32 (ptr, ...) @errmsg(ptr noundef @.str.10)
  call void @errfinish(ptr noundef @.str.1, i32 noundef 216, ptr noundef @__func__.pg_log_standby_snapshot)
  br label %30

30:                                               ; preds = %27, %25, %23
  unreachable

31:                                               ; No predecessors!
  br label %32

32:                                               ; preds = %31
  br label %33

33:                                               ; preds = %32, %18
  %34 = call i64 @LogStandbySnapshot()
  store i64 %34, ptr %3, align 8
  %35 = load i64, ptr %3, align 8
  %36 = call i64 @LSNGetDatum(i64 noundef %35)
  call void @llvm.lifetime.end.p0(i64 8, ptr %3) #9
  ret i64 %36
}