; Function Attrs: nounwind uwtable
define dso_local i64 @pg_log_standby_snapshot(ptr noundef readnone captures(none) %0) local_unnamed_addr #0 {
  %2 = tail call zeroext i1 @RecoveryInProgress() #9
  br i1 %2, label %3, label %8

3:                                                ; preds = %1
  %4 = tail call zeroext i1 @errstart_cold(i32 noundef 21, ptr noundef null) #10
  tail call void @llvm.assume(i1 %4)
  %5 = tail call i32 @errcode(i32 noundef 325) #9
  %6 = tail call i32 (ptr, ...) @errmsg(ptr noundef nonnull @.str.6) #9
  %7 = tail call i32 (ptr, ...) @errhint(ptr noundef nonnull @.str.8, ptr noundef nonnull @.str.9) #9
  tail call void @errfinish(ptr noundef nonnull @.str.1, i32 noundef 211, ptr noundef nonnull @__func__.pg_log_standby_snapshot) #9
  unreachable

8:                                                ; preds = %1
  %9 = load i32, ptr @wal_level, align 4
  %10 = icmp sgt i32 %9, 0
  br i1 %10, label %15, label %11

11:                                               ; preds = %8
  %12 = tail call zeroext i1 @errstart_cold(i32 noundef 21, ptr noundef null) #10
  tail call void @llvm.assume(i1 %12)
  %13 = tail call i32 @errcode(i32 noundef 325) #9
  %14 = tail call i32 (ptr, ...) @errmsg(ptr noundef nonnull @.str.10) #9
  tail call void @errfinish(ptr noundef nonnull @.str.1, i32 noundef 216, ptr noundef nonnull @__func__.pg_log_standby_snapshot) #9
  unreachable

15:                                               ; preds = %8
  %16 = tail call i64 @LogStandbySnapshot() #9
  ret i64 %16
}